; Function Attrs: mustprogress nounwind uwtable
define hidden void @_ZN5ceres8internal26LevenbergMarquardtStrategyD0Ev(ptr noundef nonnull align 8 dereferenceable(112) %0) unnamed_addr #4 align 2 personality ptr @__gxx_personality_v0 {
  %2 = getelementptr inbounds i8, ptr %0, i64 80
  %3 = load ptr, ptr %2, align 8
  tail call void @free(ptr noundef %3) #22
  %4 = getelementptr inbounds i8, ptr %0, i64 64
  %5 = load ptr, ptr %4, align 8
  tail call void @free(ptr noundef %5) #22
  tail call void @_ZN5ceres8internal19TrustRegionStrategyD2Ev(ptr noundef nonnull align 8 dereferenceable(8) %0) #22
  tail call void @_ZdlPv(ptr noundef nonnull %0) #23
  ret void
}